target datalayout = "e-m:e-p270:32:32-p271:32:32-p272:64:64-i64:64-i128:128-f80:128-n8:16:32:64-S128"
target triple = "x86_64-pc-linux-gnu"

%struct._asn1_ctx_t = type { i32, i32, i8, ptr, ptr, ptr, ptr, ptr, %struct.anon, %struct.anon.2, %struct.anon.3, ptr }
%struct.anon = type { i32, i8, i8, i8, ptr, ptr, i32, i32, ptr, ptr, ptr, %union.anon }
%union.anon = type { %struct.anon.0 }
%struct.anon.0 = type { ptr }
%struct.anon.2 = type { ptr, ptr, ptr }
%struct.anon.3 = type { i32, i8, ptr, i32, i32, ptr, ptr, ptr, %union.anon.4 }
%union.anon.4 = type { %struct.anon.5 }
%struct.anon.5 = type { ptr }
%struct._packet_info = type { ptr, ptr, i32, i32, %struct.nstime_t, %struct.nstime_t, %struct.nstime_t, i8, ptr, ptr, ptr, ptr, %struct._address, %struct._address, %struct._address, %struct._address, %struct._address, %struct._address, i32, ptr, i8, [3 x i8], %struct.anon.7, i32, i32, i32, i32, ptr, i8, ptr, ptr, i16, i16, i32, i32, i16, i32, i32, ptr, ptr, ptr, i8, i8, i16, i16, i16, i32, i16, i16, ptr, ptr, ptr, ptr, ptr, i32, i32 }
%struct.nstime_t = type { i64, i32 }
%struct._address = type { i32, i32, ptr, ptr }
%struct.anon.7 = type { i8, [3 x i8] }
%struct._gef_ctx_t = type { i32, ptr, ptr, ptr, ptr, ptr }
%struct._proto_node = type { ptr, ptr, ptr, ptr, ptr, ptr, ptr }
%struct.field_info = type { ptr, i32, i32, i32, i32, i32, i32, ptr, ptr, ptr, i32, i32 }

@hf_h245_debug_dissector_try_string = internal global i32 0, align 4
@.str.1473 = private unnamed_addr constant [13 x i8] c"booleanArray\00", align 1
@gef_content_dissector_table = internal global ptr null, align 8

; Function Attrs: inlinehint nounwind null_pointer_is_valid sspstrong uwtable
define internal void @proto_item_set_hidden(ptr noundef %0) #6 {
  %2 = alloca ptr, align 8
  store ptr %0, ptr %2, align 8
  %3 = load ptr, ptr %2, align 8
  %4 = icmp ne ptr %3, null
  br i1 %4, label %5, label %24

5:                                                ; preds = %1
  br label %6

6:                                                ; preds = %5
  %7 = load ptr, ptr %2, align 8
  %8 = getelementptr inbounds nuw %struct._proto_node, ptr %7, i32 0, i32 5
  %9 = load ptr, ptr %8, align 8
  %10 = icmp ne ptr %9, null
  br i1 %10, label %11, label %22

11:                                               ; preds = %6
  %12 = load ptr, ptr %2, align 8
  %13 = getelementptr inbounds nuw %struct._proto_node, ptr %12, i32 0, i32 5
  %14 = load ptr, ptr %13, align 8
  %15 = getelementptr inbounds nuw %struct.field_info, ptr %14, i32 0, i32 6
  %16 = load i32, ptr %15, align 4
  %17 = or i32 %16, 1
  %18 = load ptr, ptr %2, align 8
  %19 = getelementptr inbounds nuw %struct._proto_node, ptr %18, i32 0, i32 5
  %20 = load ptr, ptr %19, align 8
  %21 = getelementptr inbounds nuw %struct.field_info, ptr %20, i32 0, i32 6
  store i32 %17, ptr %21, align 4
  br label %22

22:                                               ; preds = %11, %6
  br label %23

23:                                               ; preds = %22
  br label %24

24:                                               ; preds = %23, %1
  ret void
}

; Function Attrs: null_pointer_is_valid sspstrong uwtable
define internal i32 @dissect_h245_T_booleanArray(ptr noundef %0, i32 noundef %1, ptr noundef %2, ptr noundef %3, i32 noundef %4) #1 {
  %6 = alloca ptr, align 8
  %7 = alloca i32, align 4
  %8 = alloca ptr, align 8
  %9 = alloca ptr, align 8
  %10 = alloca i32, align 4
  %11 = alloca i32, align 4
  %12 = alloca ptr, align 8
  %13 = alloca ptr, align 8
  %14 = alloca ptr, align 8
  %15 = alloca ptr, align 8
  store ptr %0, ptr %6, align 8
  store i32 %1, ptr %7, align 4
  store ptr %2, ptr %8, align 8
  store ptr %3, ptr %9, align 8
  store i32 %4, ptr %10, align 4
  call void @llvm.lifetime.start.p0(i64 4, ptr %11) #12
  call void @llvm.lifetime.start.p0(i64 8, ptr %12) #12
  call void @llvm.lifetime.start.p0(i64 8, ptr %13) #12
  call void @llvm.lifetime.start.p0(i64 8, ptr %14) #12
  call void @llvm.lifetime.start.p0(i64 8, ptr %15) #12
  %16 = load ptr, ptr %6, align 8
  %17 = load i32, ptr %7, align 4
  %18 = load ptr, ptr %8, align 8
  %19 = load ptr, ptr %9, align 8
  %20 = load i32, ptr %10, align 4
  %21 = call i32 @dissect_per_constrained_integer(ptr noundef %16, i32 noundef %17, ptr noundef %18, ptr noundef %19, i32 noundef %20, i32 noundef 0, i32 noundef 255, ptr noundef %11, i1 noundef zeroext false)
  store i32 %21, ptr %7, align 4
  %22 = load ptr, ptr %8, align 8
  %23 = getelementptr inbounds nuw %struct._asn1_ctx_t, ptr %22, i32 0, i32 7
  %24 = load ptr, ptr %23, align 8
  %25 = call ptr @gef_ctx_get(ptr noundef %24)
  store ptr %25, ptr %14, align 8
  %26 = load ptr, ptr %14, align 8
  %27 = icmp ne ptr %26, null
  br i1 %27, label %28, label %67

28:                                               ; preds = %5
  %29 = load ptr, ptr %8, align 8
  %30 = getelementptr inbounds nuw %struct._asn1_ctx_t, ptr %29, i32 0, i32 3
  %31 = load ptr, ptr %30, align 8
  %32 = getelementptr inbounds nuw %struct._packet_info, ptr %31, i32 0, i32 51
  %33 = load ptr, ptr %32, align 8
  %34 = call noalias ptr @wmem_alloc(ptr noundef %33, i64 noundef 1) #13
  store ptr %34, ptr %12, align 8
  %35 = load i32, ptr %11, align 4
  %36 = trunc i32 %35 to i8
  %37 = load ptr, ptr %12, align 8
  %38 = getelementptr i8, ptr %37, i64 0
  store i8 %36, ptr %38, align 1
  %39 = load ptr, ptr %6, align 8
  %40 = load ptr, ptr %12, align 8
  %41 = call ptr @tvb_new_child_real_data(ptr noundef %39, ptr noundef %40, i32 noundef 1, i32 noundef 1)
  store ptr %41, ptr %13, align 8
  %42 = load ptr, ptr %9, align 8
  %43 = load i32, ptr @hf_h245_debug_dissector_try_string, align 4
  %44 = load ptr, ptr %6, align 8
  %45 = load i32, ptr %7, align 4
  %46 = ashr i32 %45, 3
  %47 = load ptr, ptr %14, align 8
  %48 = getelementptr inbounds nuw %struct._gef_ctx_t, ptr %47, i32 0, i32 5
  %49 = load ptr, ptr %48, align 8
  %50 = call ptr @proto_tree_add_string(ptr noundef %42, i32 noundef %43, ptr noundef %44, i32 noundef %46, i32 noundef 0, ptr noundef %49)
  store ptr %50, ptr %15, align 8
  %51 = load ptr, ptr %15, align 8
  call void @proto_item_set_hidden(ptr noundef %51)
  %52 = load ptr, ptr %8, align 8
  %53 = getelementptr inbounds nuw %struct._asn1_ctx_t, ptr %52, i32 0, i32 3
  %54 = load ptr, ptr %53, align 8
  %55 = load ptr, ptr %13, align 8
  call void @add_new_data_source(ptr noundef %54, ptr noundef %55, ptr noundef @.str.1473)
  %56 = load ptr, ptr @gef_content_dissector_table, align 8
  %57 = load ptr, ptr %14, align 8
  %58 = getelementptr inbounds nuw %struct._gef_ctx_t, ptr %57, i32 0, i32 5
  %59 = load ptr, ptr %58, align 8
  %60 = load ptr, ptr %13, align 8
  %61 = load ptr, ptr %8, align 8
  %62 = getelementptr inbounds nuw %struct._asn1_ctx_t, ptr %61, i32 0, i32 3
  %63 = load ptr, ptr %62, align 8
  %64 = load ptr, ptr %9, align 8
  %65 = load ptr, ptr %8, align 8
  %66 = call i32 @dissector_try_string_with_data(ptr noundef %56, ptr noundef %59, ptr noundef %60, ptr noundef %63, ptr noundef %64, i1 noundef zeroext false, ptr noundef %65)
  br label %67

67:                                               ; preds = %28, %5
  %68 = load i32, ptr %7, align 4
  call void @llvm.lifetime.end.p0(i64 8, ptr %15) #12
  call void @llvm.lifetime.end.p0(i64 8, ptr %14) #12
  call void @llvm.lifetime.end.p0(i64 8, ptr %13) #12
  call void @llvm.lifetime.end.p0(i64 8, ptr %12) #12
  call void @llvm.lifetime.end.p0(i64 4, ptr %11) #12
  ret i32 %68
}