; Function Attrs: null_pointer_is_valid sspstrong uwtable
define internal i32 @dissect_h245_T_booleanArray(ptr noundef %0, i32 noundef %1, ptr noundef %2, ptr noundef %3, i32 noundef %4) #1 {
  %6 = alloca i32, align 4
  call void @llvm.lifetime.start.p0(i64 4, ptr nonnull %6) #13
  %7 = call i32 @dissect_per_constrained_integer(ptr noundef %0, i32 noundef %1, ptr noundef %2, ptr noundef %3, i32 noundef %4, i32 noundef 0, i32 noundef 255, ptr noundef nonnull %6, i1 noundef zeroext false)
  %8 = getelementptr inbounds nuw i8, ptr %2, i64 48
  %9 = load ptr, ptr %8, align 8
  %10 = call ptr @gef_ctx_get(ptr noundef %9)
  %.not = icmp eq ptr %10, null
  br i1 %.not, label %37, label %11

11:                                               ; preds = %5
  %12 = getelementptr inbounds nuw i8, ptr %2, i64 16
  %13 = load ptr, ptr %12, align 8
  %14 = getelementptr inbounds nuw i8, ptr %13, i64 408
  %15 = load ptr, ptr %14, align 8
  %16 = call noalias dereferenceable_or_null(1) ptr @wmem_alloc(ptr noundef %15, i64 noundef 1) #11
  %17 = load i32, ptr %6, align 4
  %18 = trunc i32 %17 to i8
  store i8 %18, ptr %16, align 1
  %19 = call ptr @tvb_new_child_real_data(ptr noundef %0, ptr noundef %16, i32 noundef 1, i32 noundef 1)
  %20 = load i32, ptr @hf_h245_debug_dissector_try_string, align 4
  %21 = ashr i32 %7, 3
  %22 = getelementptr inbounds nuw i8, ptr %10, i64 40
  %23 = load ptr, ptr %22, align 8
  %24 = call ptr @proto_tree_add_string(ptr noundef %3, i32 noundef %20, ptr noundef %0, i32 noundef %21, i32 noundef 0, ptr noundef %23)
  %.not.i = icmp eq ptr %24, null
  br i1 %.not.i, label %proto_item_set_hidden.exit, label %25

25:                                               ; preds = %11
  %26 = getelementptr inbounds nuw i8, ptr %24, i64 40
  %27 = load ptr, ptr %26, align 8
  %.not5.i = icmp eq ptr %27, null
  br i1 %.not5.i, label %proto_item_set_hidden.exit, label %28

28:                                               ; preds = %25
  %29 = getelementptr inbounds nuw i8, ptr %27, i64 28
  %30 = load i32, ptr %29, align 4
  %31 = or i32 %30, 1
  store i32 %31, ptr %29, align 4
  br label %proto_item_set_hidden.exit

proto_item_set_hidden.exit:                       ; preds = %11, %25, %28
  %32 = load ptr, ptr %12, align 8
  call void @add_new_data_source(ptr noundef %32, ptr noundef %19, ptr noundef nonnull @.str.1473)
  %33 = load ptr, ptr @gef_content_dissector_table, align 8
  %34 = load ptr, ptr %22, align 8
  %35 = load ptr, ptr %12, align 8
  %36 = call i32 @dissector_try_string_with_data(ptr noundef %33, ptr noundef %34, ptr noundef %19, ptr noundef %35, ptr noundef %3, i1 noundef zeroext false, ptr noundef %2)
  br label %37

37:                                               ; preds = %proto_item_set_hidden.exit, %5
  call void @llvm.lifetime.end.p0(i64 4, ptr nonnull %6) #13
  ret i32 %7
}